; Function Attrs: mustprogress nounwind uwtable
define hidden void @_ZN10JavaThread14pretouch_stackEv(ptr nocapture noundef nonnull readonly align 8 dereferenceable(1800) %0) local_unnamed_addr #0 align 2 {
  %2 = alloca ptr, align 8
  %3 = getelementptr inbounds i8, ptr %0, i64 1248
  %4 = load ptr, ptr %3, align 8
  %5 = getelementptr inbounds i8, ptr %0, i64 824
  %6 = load ptr, ptr %5, align 8
  %7 = getelementptr inbounds i8, ptr %0, i64 832
  %8 = load i64, ptr %7, align 8
  %9 = sub i64 0, %8
  %10 = getelementptr inbounds i8, ptr %6, i64 %9
  %11 = icmp ugt ptr %6, %4
  %12 = icmp ule ptr %10, %4
  %13 = select i1 %11, i1 %12, i1 false
  br i1 %13, label %14, label %38

14:                                               ; preds = %1
  %15 = alloca i8, align 16
  store ptr %15, ptr %2, align 8
  %16 = icmp ugt ptr %6, %2
  %17 = icmp ule ptr %10, %2
  %18 = select i1 %16, i1 %17, i1 false
  %19 = icmp ugt ptr %2, %4
  %or.cond = and i1 %19, %18
  br i1 %or.cond, label %20, label %38

20:                                               ; preds = %14
  %21 = ptrtoint ptr %2 to i64
  %22 = ptrtoint ptr %4 to i64
  %23 = sub i64 %21, %22
  %24 = alloca i8, i64 %23, align 16
  %25 = load volatile ptr, ptr getelementptr inbounds (i8, ptr @_ZN16LogTagSetMappingILN6LogTag4typeE105ELS1_159ELS1_0ELS1_0ELS1_0ELS1_0EE7_tagsetE, i64 48), align 8
  %.not = icmp eq ptr %25, null
  br i1 %.not, label %35, label %26

26:                                               ; preds = %20
  %27 = getelementptr inbounds i8, ptr %0, i64 792
  %28 = load ptr, ptr %27, align 8
  %29 = getelementptr inbounds i8, ptr %28, i64 192
  %30 = load i32, ptr %29, align 8
  %31 = sext i32 %30 to i64
  %32 = ptrtoint ptr %24 to i64
  %33 = getelementptr inbounds i8, ptr %24, i64 %23
  %34 = ptrtoint ptr %33 to i64
  call void (ptr, ...) @_ZN7LogImplILN6LogTag4typeE105ELS1_159ELS1_0ELS1_0ELS1_0ELS1_0EE5writeILN8LogLevel4typeE1EEEvPKcz(ptr noundef nonnull @.str.44, i64 noundef %31, i64 noundef %32, i64 noundef %34, i64 noundef %23)
  br label %35

35:                                               ; preds = %20, %26
  %36 = getelementptr inbounds i8, ptr %24, i64 %23
  %37 = load i64, ptr @_ZN6OSInfo13_vm_page_sizeE, align 8
  call void @_ZN2os15pretouch_memoryEPvS0_m(ptr noundef nonnull %24, ptr noundef nonnull %36, i64 noundef %37) #21
  br label %38

38:                                               ; preds = %14, %35, %1
  ret void
}